target datalayout = "e-m:e-p270:32:32-p271:32:32-p272:64:64-i64:64-i128:128-f80:128-n8:16:32:64-S128"
target triple = "x86_64-pc-linux-gnu"

; Function Attrs: alwaysinline nounwind willreturn memory(none) uwtable
define internal zeroext i8 @av_clip_uint8_c(i32 noundef %0) #6 {
  %2 = alloca i8, align 1
  %3 = alloca i32, align 4
  store i32 %0, ptr %3, align 4, !tbaa !30
  %4 = load i32, ptr %3, align 4, !tbaa !30
  %5 = and i32 %4, -256
  %6 = icmp ne i32 %5, 0
  br i1 %6, label %7, label %12

7:                                                ; preds = %1
  %8 = load i32, ptr %3, align 4, !tbaa !30
  %9 = xor i32 %8, -1
  %10 = ashr i32 %9, 31
  %11 = trunc i32 %10 to i8
  store i8 %11, ptr %2, align 1
  br label %15

12:                                               ; preds = %1
  %13 = load i32, ptr %3, align 4, !tbaa !30
  %14 = trunc i32 %13 to i8
  store i8 %14, ptr %2, align 1
  br label %15

15:                                               ; preds = %12, %7
  %16 = load i8, ptr %2, align 1
  ret i8 %16
}

; Function Attrs: alwaysinline nounwind uwtable
define internal void @yuv2422_X_c_template(ptr noundef %0, ptr noundef %1, ptr noundef %2, i32 noundef %3, ptr noundef %4, ptr noundef %5, ptr noundef %6, i32 noundef %7, ptr noundef %8, ptr noundef %9, i32 noundef %10, i32 noundef %11, i32 noundef %12) #3 {
  %14 = alloca ptr, align 8
  %15 = alloca ptr, align 8
  %16 = alloca ptr, align 8
  %17 = alloca i32, align 4
  %18 = alloca ptr, align 8
  %19 = alloca ptr, align 8
  %20 = alloca ptr, align 8
  %21 = alloca i32, align 4
  %22 = alloca ptr, align 8
  %23 = alloca ptr, align 8
  %24 = alloca i32, align 4
  %25 = alloca i32, align 4
  %26 = alloca i32, align 4
  %27 = alloca i32, align 4
  %28 = alloca i32, align 4
  %29 = alloca i32, align 4
  %30 = alloca i32, align 4
  %31 = alloca i32, align 4
  %32 = alloca i32, align 4
  store ptr %0, ptr %14, align 8, !tbaa !4
  store ptr %1, ptr %15, align 8, !tbaa !45
  store ptr %2, ptr %16, align 8, !tbaa !47
  store i32 %3, ptr %17, align 4, !tbaa !30
  store ptr %4, ptr %18, align 8, !tbaa !45
  store ptr %5, ptr %19, align 8, !tbaa !47
  store ptr %6, ptr %20, align 8, !tbaa !47
  store i32 %7, ptr %21, align 4, !tbaa !30
  store ptr %8, ptr %22, align 8, !tbaa !47
  store ptr %9, ptr %23, align 8, !tbaa !46
  store i32 %10, ptr %24, align 4, !tbaa !30
  store i32 %11, ptr %25, align 4, !tbaa !30
  store i32 %12, ptr %26, align 4, !tbaa !30
  call void @llvm.lifetime.start.p0(i64 4, ptr %27) #8
  store i32 0, ptr %27, align 4, !tbaa !30
  br label %33

33:                                               ; preds = %274, %13
  %34 = load i32, ptr %27, align 4, !tbaa !30
  %35 = load i32, ptr %24, align 4, !tbaa !30
  %36 = add nsw i32 %35, 1
  %37 = ashr i32 %36, 1
  %38 = icmp slt i32 %34, %37
  br i1 %38, label %39, label %277

39:                                               ; preds = %33
  call void @llvm.lifetime.start.p0(i64 4, ptr %28) #8
  call void @llvm.lifetime.start.p0(i64 4, ptr %29) #8
  store i32 262144, ptr %29, align 4, !tbaa !30
  call void @llvm.lifetime.start.p0(i64 4, ptr %30) #8
  store i32 262144, ptr %30, align 4, !tbaa !30
  call void @llvm.lifetime.start.p0(i64 4, ptr %31) #8
  store i32 262144, ptr %31, align 4, !tbaa !30
  call void @llvm.lifetime.start.p0(i64 4, ptr %32) #8
  store i32 262144, ptr %32, align 4, !tbaa !30
  store i32 0, ptr %28, align 4, !tbaa !30
  br label %40

40:                                               ; preds = %86, %39
  %41 = load i32, ptr %28, align 4, !tbaa !30
  %42 = load i32, ptr %17, align 4, !tbaa !30
  %43 = icmp slt i32 %41, %42
  br i1 %43, label %44, label %89

44:                                               ; preds = %40
  %45 = load ptr, ptr %16, align 8, !tbaa !47
  %46 = load i32, ptr %28, align 4, !tbaa !30
  %47 = sext i32 %46 to i64
  %48 = getelementptr inbounds ptr, ptr %45, i64 %47
  %49 = load ptr, ptr %48, align 8, !tbaa !45
  %50 = load i32, ptr %27, align 4, !tbaa !30
  %51 = mul nsw i32 %50, 2
  %52 = sext i32 %51 to i64
  %53 = getelementptr inbounds i16, ptr %49, i64 %52
  %54 = load i16, ptr %53, align 2, !tbaa !49
  %55 = sext i16 %54 to i32
  %56 = load ptr, ptr %15, align 8, !tbaa !45
  %57 = load i32, ptr %28, align 4, !tbaa !30
  %58 = sext i32 %57 to i64
  %59 = getelementptr inbounds i16, ptr %56, i64 %58
  %60 = load i16, ptr %59, align 2, !tbaa !49
  %61 = sext i16 %60 to i32
  %62 = mul nsw i32 %55, %61
  %63 = load i32, ptr %29, align 4, !tbaa !30
  %64 = add nsw i32 %63, %62
  store i32 %64, ptr %29, align 4, !tbaa !30
  %65 = load ptr, ptr %16, align 8, !tbaa !47
  %66 = load i32, ptr %28, align 4, !tbaa !30
  %67 = sext i32 %66 to i64
  %68 = getelementptr inbounds ptr, ptr %65, i64 %67
  %69 = load ptr, ptr %68, align 8, !tbaa !45
  %70 = load i32, ptr %27, align 4, !tbaa !30
  %71 = mul nsw i32 %70, 2
  %72 = add nsw i32 %71, 1
  %73 = sext i32 %72 to i64
  %74 = getelementptr inbounds i16, ptr %69, i64 %73
  %75 = load i16, ptr %74, align 2, !tbaa !49
  %76 = sext i16 %75 to i32
  %77 = load ptr, ptr %15, align 8, !tbaa !45
  %78 = load i32, ptr %28, align 4, !tbaa !30
  %79 = sext i32 %78 to i64
  %80 = getelementptr inbounds i16, ptr %77, i64 %79
  %81 = load i16, ptr %80, align 2, !tbaa !49
  %82 = sext i16 %81 to i32
  %83 = mul nsw i32 %76, %82
  %84 = load i32, ptr %30, align 4, !tbaa !30
  %85 = add nsw i32 %84, %83
  store i32 %85, ptr %30, align 4, !tbaa !30
  br label %86

86:                                               ; preds = %44
  %87 = load i32, ptr %28, align 4, !tbaa !30
  %88 = add nsw i32 %87, 1
  store i32 %88, ptr %28, align 4, !tbaa !30
  br label %40, !llvm.loop !168

89:                                               ; preds = %40
  store i32 0, ptr %28, align 4, !tbaa !30
  br label %90

90:                                               ; preds = %133, %89
  %91 = load i32, ptr %28, align 4, !tbaa !30
  %92 = load i32, ptr %21, align 4, !tbaa !30
  %93 = icmp slt i32 %91, %92
  br i1 %93, label %94, label %136

94:                                               ; preds = %90
  %95 = load ptr, ptr %19, align 8, !tbaa !47
  %96 = load i32, ptr %28, align 4, !tbaa !30
  %97 = sext i32 %96 to i64
  %98 = getelementptr inbounds ptr, ptr %95, i64 %97
  %99 = load ptr, ptr %98, align 8, !tbaa !45
  %100 = load i32, ptr %27, align 4, !tbaa !30
  %101 = sext i32 %100 to i64
  %102 = getelementptr inbounds i16, ptr %99, i64 %101
  %103 = load i16, ptr %102, align 2, !tbaa !49
  %104 = sext i16 %103 to i32
  %105 = load ptr, ptr %18, align 8, !tbaa !45
  %106 = load i32, ptr %28, align 4, !tbaa !30
  %107 = sext i32 %106 to i64
  %108 = getelementptr inbounds i16, ptr %105, i64 %107
  %109 = load i16, ptr %108, align 2, !tbaa !49
  %110 = sext i16 %109 to i32
  %111 = mul nsw i32 %104, %110
  %112 = load i32, ptr %31, align 4, !tbaa !30
  %113 = add nsw i32 %112, %111
  store i32 %113, ptr %31, align 4, !tbaa !30
  %114 = load ptr, ptr %20, align 8, !tbaa !47
  %115 = load i32, ptr %28, align 4, !tbaa !30
  %116 = sext i32 %115 to i64
  %117 = getelementptr inbounds ptr, ptr %114, i64 %116
  %118 = load ptr, ptr %117, align 8, !tbaa !45
  %119 = load i32, ptr %27, align 4, !tbaa !30
  %120 = sext i32 %119 to i64
  %121 = getelementptr inbounds i16, ptr %118, i64 %120
  %122 = load i16, ptr %121, align 2, !tbaa !49
  %123 = sext i16 %122 to i32
  %124 = load ptr, ptr %18, align 8, !tbaa !45
  %125 = load i32, ptr %28, align 4, !tbaa !30
  %126 = sext i32 %125 to i64
  %127 = getelementptr inbounds i16, ptr %124, i64 %126
  %128 = load i16, ptr %127, align 2, !tbaa !49
  %129 = sext i16 %128 to i32
  %130 = mul nsw i32 %123, %129
  %131 = load i32, ptr %32, align 4, !tbaa !30
  %132 = add nsw i32 %131, %130
  store i32 %132, ptr %32, align 4, !tbaa !30
  br label %133

133:                                              ; preds = %94
  %134 = load i32, ptr %28, align 4, !tbaa !30
  %135 = add nsw i32 %134, 1
  store i32 %135, ptr %28, align 4, !tbaa !30
  br label %90, !llvm.loop !169

136:                                              ; preds = %90
  %137 = load i32, ptr %29, align 4, !tbaa !30
  %138 = ashr i32 %137, 19
  store i32 %138, ptr %29, align 4, !tbaa !30
  %139 = load i32, ptr %30, align 4, !tbaa !30
  %140 = ashr i32 %139, 19
  store i32 %140, ptr %30, align 4, !tbaa !30
  %141 = load i32, ptr %31, align 4, !tbaa !30
  %142 = ashr i32 %141, 19
  store i32 %142, ptr %31, align 4, !tbaa !30
  %143 = load i32, ptr %32, align 4, !tbaa !30
  %144 = ashr i32 %143, 19
  store i32 %144, ptr %32, align 4, !tbaa !30
  %145 = load i32, ptr %29, align 4, !tbaa !30
  %146 = load i32, ptr %30, align 4, !tbaa !30
  %147 = or i32 %145, %146
  %148 = load i32, ptr %31, align 4, !tbaa !30
  %149 = or i32 %147, %148
  %150 = load i32, ptr %32, align 4, !tbaa !30
  %151 = or i32 %149, %150
  %152 = and i32 %151, 256
  %153 = icmp ne i32 %152, 0
  br i1 %153, label %154, label %167

154:                                              ; preds = %136
  %155 = load i32, ptr %29, align 4, !tbaa !30
  %156 = call zeroext i8 @av_clip_uint8_c(i32 noundef %155) #10
  %157 = zext i8 %156 to i32
  store i32 %157, ptr %29, align 4, !tbaa !30
  %158 = load i32, ptr %30, align 4, !tbaa !30
  %159 = call zeroext i8 @av_clip_uint8_c(i32 noundef %158) #10
  %160 = zext i8 %159 to i32
  store i32 %160, ptr %30, align 4, !tbaa !30
  %161 = load i32, ptr %31, align 4, !tbaa !30
  %162 = call zeroext i8 @av_clip_uint8_c(i32 noundef %161) #10
  %163 = zext i8 %162 to i32
  store i32 %163, ptr %31, align 4, !tbaa !30
  %164 = load i32, ptr %32, align 4, !tbaa !30
  %165 = call zeroext i8 @av_clip_uint8_c(i32 noundef %164) #10
  %166 = zext i8 %165 to i32
  store i32 %166, ptr %32, align 4, !tbaa !30
  br label %167

167:                                              ; preds = %154, %136
  %168 = load i32, ptr %26, align 4, !tbaa !30
  %169 = icmp eq i32 %168, 1
  br i1 %169, label %170, label %203

170:                                              ; preds = %167
  %171 = load i32, ptr %29, align 4, !tbaa !30
  %172 = trunc i32 %171 to i8
  %173 = load ptr, ptr %23, align 8, !tbaa !46
  %174 = load i32, ptr %27, align 4, !tbaa !30
  %175 = mul nsw i32 4, %174
  %176 = add nsw i32 %175, 0
  %177 = sext i32 %176 to i64
  %178 = getelementptr inbounds i8, ptr %173, i64 %177
  store i8 %172, ptr %178, align 1, !tbaa !51
  %179 = load i32, ptr %31, align 4, !tbaa !30
  %180 = trunc i32 %179 to i8
  %181 = load ptr, ptr %23, align 8, !tbaa !46
  %182 = load i32, ptr %27, align 4, !tbaa !30
  %183 = mul nsw i32 4, %182
  %184 = add nsw i32 %183, 1
  %185 = sext i32 %184 to i64
  %186 = getelementptr inbounds i8, ptr %181, i64 %185
  store i8 %180, ptr %186, align 1, !tbaa !51
  %187 = load i32, ptr %30, align 4, !tbaa !30
  %188 = trunc i32 %187 to i8
  %189 = load ptr, ptr %23, align 8, !tbaa !46
  %190 = load i32, ptr %27, align 4, !tbaa !30
  %191 = mul nsw i32 4, %190
  %192 = add nsw i32 %191, 2
  %193 = sext i32 %192 to i64
  %194 = getelementptr inbounds i8, ptr %189, i64 %193
  store i8 %188, ptr %194, align 1, !tbaa !51
  %195 = load i32, ptr %32, align 4, !tbaa !30
  %196 = trunc i32 %195 to i8
  %197 = load ptr, ptr %23, align 8, !tbaa !46
  %198 = load i32, ptr %27, align 4, !tbaa !30
  %199 = mul nsw i32 4, %198
  %200 = add nsw i32 %199, 3
  %201 = sext i32 %200 to i64
  %202 = getelementptr inbounds i8, ptr %197, i64 %201
  store i8 %196, ptr %202, align 1, !tbaa !51
  br label %273

203:                                              ; preds = %167
  %204 = load i32, ptr %26, align 4, !tbaa !30
  %205 = icmp eq i32 %204, 108
  br i1 %205, label %206, label %239

206:                                              ; preds = %203
  %207 = load i32, ptr %29, align 4, !tbaa !30
  %208 = trunc i32 %207 to i8
  %209 = load ptr, ptr %23, align 8, !tbaa !46
  %210 = load i32, ptr %27, align 4, !tbaa !30
  %211 = mul nsw i32 4, %210
  %212 = add nsw i32 %211, 0
  %213 = sext i32 %212 to i64
  %214 = getelementptr inbounds i8, ptr %209, i64 %213
  store i8 %208, ptr %214, align 1, !tbaa !51
  %215 = load i32, ptr %32, align 4, !tbaa !30
  %216 = trunc i32 %215 to i8
  %217 = load ptr, ptr %23, align 8, !tbaa !46
  %218 = load i32, ptr %27, align 4, !tbaa !30
  %219 = mul nsw i32 4, %218
  %220 = add nsw i32 %219, 1
  %221 = sext i32 %220 to i64
  %222 = getelementptr inbounds i8, ptr %217, i64 %221
  store i8 %216, ptr %222, align 1, !tbaa !51
  %223 = load i32, ptr %30, align 4, !tbaa !30
  %224 = trunc i32 %223 to i8
  %225 = load ptr, ptr %23, align 8, !tbaa !46
  %226 = load i32, ptr %27, align 4, !tbaa !30
  %227 = mul nsw i32 4, %226
  %228 = add nsw i32 %227, 2
  %229 = sext i32 %228 to i64
  %230 = getelementptr inbounds i8, ptr %225, i64 %229
  store i8 %224, ptr %230, align 1, !tbaa !51
  %231 = load i32, ptr %31, align 4, !tbaa !30
  %232 = trunc i32 %231 to i8
  %233 = load ptr, ptr %23, align 8, !tbaa !46
  %234 = load i32, ptr %27, align 4, !tbaa !30
  %235 = mul nsw i32 4, %234
  %236 = add nsw i32 %235, 3
  %237 = sext i32 %236 to i64
  %238 = getelementptr inbounds i8, ptr %233, i64 %237
  store i8 %232, ptr %238, align 1, !tbaa !51
  br label %272

239:                                              ; preds = %203
  %240 = load i32, ptr %31, align 4, !tbaa !30
  %241 = trunc i32 %240 to i8
  %242 = load ptr, ptr %23, align 8, !tbaa !46
  %243 = load i32, ptr %27, align 4, !tbaa !30
  %244 = mul nsw i32 4, %243
  %245 = add nsw i32 %244, 0
  %246 = sext i32 %245 to i64
  %247 = getelementptr inbounds i8, ptr %242, i64 %246
  store i8 %241, ptr %247, align 1, !tbaa !51
  %248 = load i32, ptr %29, align 4, !tbaa !30
  %249 = trunc i32 %248 to i8
  %250 = load ptr, ptr %23, align 8, !tbaa !46
  %251 = load i32, ptr %27, align 4, !tbaa !30
  %252 = mul nsw i32 4, %251
  %253 = add nsw i32 %252, 1
  %254 = sext i32 %253 to i64
  %255 = getelementptr inbounds i8, ptr %250, i64 %254
  store i8 %249, ptr %255, align 1, !tbaa !51
  %256 = load i32, ptr %32, align 4, !tbaa !30
  %257 = trunc i32 %256 to i8
  %258 = load ptr, ptr %23, align 8, !tbaa !46
  %259 = load i32, ptr %27, align 4, !tbaa !30
  %260 = mul nsw i32 4, %259
  %261 = add nsw i32 %260, 2
  %262 = sext i32 %261 to i64
  %263 = getelementptr inbounds i8, ptr %258, i64 %262
  store i8 %257, ptr %263, align 1, !tbaa !51
  %264 = load i32, ptr %30, align 4, !tbaa !30
  %265 = trunc i32 %264 to i8
  %266 = load ptr, ptr %23, align 8, !tbaa !46
  %267 = load i32, ptr %27, align 4, !tbaa !30
  %268 = mul nsw i32 4, %267
  %269 = add nsw i32 %268, 3
  %270 = sext i32 %269 to i64
  %271 = getelementptr inbounds i8, ptr %266, i64 %270
  store i8 %265, ptr %271, align 1, !tbaa !51
  br label %272

272:                                              ; preds = %239, %206
  br label %273

273:                                              ; preds = %272, %170
  call void @llvm.lifetime.end.p0(i64 4, ptr %32) #8
  call void @llvm.lifetime.end.p0(i64 4, ptr %31) #8
  call void @llvm.lifetime.end.p0(i64 4, ptr %30) #8
  call void @llvm.lifetime.end.p0(i64 4, ptr %29) #8
  call void @llvm.lifetime.end.p0(i64 4, ptr %28) #8
  br label %274

274:                                              ; preds = %273
  %275 = load i32, ptr %27, align 4, !tbaa !30
  %276 = add nsw i32 %275, 1
  store i32 %276, ptr %27, align 4, !tbaa !30
  br label %33, !llvm.loop !170

277:                                              ; preds = %33
  call void @llvm.lifetime.end.p0(i64 4, ptr %27) #8
  ret void
}

; Function Attrs: nounwind uwtable
define internal void @yuv2yuyv422_X_c(ptr noundef %0, ptr noundef %1, ptr noundef %2, i32 noundef %3, ptr noundef %4, ptr noundef %5, ptr noundef %6, i32 noundef %7, ptr noundef %8, ptr noundef %9, i32 noundef %10, i32 noundef %11) #4 {
  %13 = alloca ptr, align 8
  %14 = alloca ptr, align 8
  %15 = alloca ptr, align 8
  %16 = alloca i32, align 4
  %17 = alloca ptr, align 8
  %18 = alloca ptr, align 8
  %19 = alloca ptr, align 8
  %20 = alloca i32, align 4
  %21 = alloca ptr, align 8
  %22 = alloca ptr, align 8
  %23 = alloca i32, align 4
  %24 = alloca i32, align 4
  store ptr %0, ptr %13, align 8, !tbaa !4
  store ptr %1, ptr %14, align 8, !tbaa !45
  store ptr %2, ptr %15, align 8, !tbaa !47
  store i32 %3, ptr %16, align 4, !tbaa !30
  store ptr %4, ptr %17, align 8, !tbaa !45
  store ptr %5, ptr %18, align 8, !tbaa !47
  store ptr %6, ptr %19, align 8, !tbaa !47
  store i32 %7, ptr %20, align 4, !tbaa !30
  store ptr %8, ptr %21, align 8, !tbaa !47
  store ptr %9, ptr %22, align 8, !tbaa !46
  store i32 %10, ptr %23, align 4, !tbaa !30
  store i32 %11, ptr %24, align 4, !tbaa !30
  %25 = load ptr, ptr %13, align 8, !tbaa !4
  %26 = load ptr, ptr %14, align 8, !tbaa !45
  %27 = load ptr, ptr %15, align 8, !tbaa !47
  %28 = load i32, ptr %16, align 4, !tbaa !30
  %29 = load ptr, ptr %17, align 8, !tbaa !45
  %30 = load ptr, ptr %18, align 8, !tbaa !47
  %31 = load ptr, ptr %19, align 8, !tbaa !47
  %32 = load i32, ptr %20, align 4, !tbaa !30
  %33 = load ptr, ptr %21, align 8, !tbaa !47
  %34 = load ptr, ptr %22, align 8, !tbaa !46
  %35 = load i32, ptr %23, align 4, !tbaa !30
  %36 = load i32, ptr %24, align 4, !tbaa !30
  call void @yuv2422_X_c_template(ptr noundef %25, ptr noundef %26, ptr noundef %27, i32 noundef %28, ptr noundef %29, ptr noundef %30, ptr noundef %31, i32 noundef %32, ptr noundef %33, ptr noundef %34, i32 noundef %35, i32 noundef %36, i32 noundef 1)
  ret void
}